; Function Attrs: nounwind uwtable
define ptr @l_Lean_Compiler_LCNF_CacheExtension_find_x3f___at_Lean_Compiler_LCNF_cacheAuxDecl___spec__1___rarg___boxed(ptr noundef %0, ptr noundef %1, ptr noundef %2, ptr noundef %3, ptr noundef %4) #1 {
  %6 = tail call ptr @l_Lean_Compiler_LCNF_CacheExtension_find_x3f___at_Lean_Compiler_LCNF_cacheAuxDecl___spec__1___rarg(ptr noundef %0, ptr noundef %1, ptr poison, ptr noundef %3, ptr noundef %4)
  %7 = ptrtoint ptr %3 to i64
  %8 = and i64 %7, 1
  %.not = icmp eq i64 %8, 0
  br i1 %.not, label %9, label %lean_dec.exit10

9:                                                ; preds = %5
  %10 = load i32, ptr %3, align 4, !tbaa !4
  %11 = icmp sgt i32 %10, 1
  br i1 %11, label %12, label %14, !prof !11

12:                                               ; preds = %9
  %13 = add nsw i32 %10, -1
  store i32 %13, ptr %3, align 4, !tbaa !4
  br label %lean_dec.exit10

14:                                               ; preds = %9
  %.not.i = icmp eq i32 %10, 0
  br i1 %.not.i, label %lean_dec.exit10, label %15

15:                                               ; preds = %14
  tail call void @lean_dec_ref_cold(ptr noundef nonnull %3) #4
  br label %lean_dec.exit10

lean_dec.exit10:                                  ; preds = %15, %14, %12, %5
  %16 = ptrtoint ptr %2 to i64
  %17 = and i64 %16, 1
  %.not15 = icmp eq i64 %17, 0
  br i1 %.not15, label %18, label %lean_dec.exit9

18:                                               ; preds = %lean_dec.exit10
  %19 = load i32, ptr %2, align 4, !tbaa !4
  %20 = icmp sgt i32 %19, 1
  br i1 %20, label %21, label %23, !prof !11

21:                                               ; preds = %18
  %22 = add nsw i32 %19, -1
  store i32 %22, ptr %2, align 4, !tbaa !4
  br label %lean_dec.exit9

23:                                               ; preds = %18
  %.not.i11 = icmp eq i32 %19, 0
  br i1 %.not.i11, label %lean_dec.exit9, label %24

24:                                               ; preds = %23
  tail call void @lean_dec_ref_cold(ptr noundef nonnull %2) #4
  br label %lean_dec.exit9

lean_dec.exit9:                                   ; preds = %24, %23, %21, %lean_dec.exit10
  %25 = ptrtoint ptr %0 to i64
  %26 = and i64 %25, 1
  %.not16 = icmp eq i64 %26, 0
  br i1 %.not16, label %27, label %lean_dec.exit

27:                                               ; preds = %lean_dec.exit9
  %28 = load i32, ptr %0, align 4, !tbaa !4
  %29 = icmp sgt i32 %28, 1
  br i1 %29, label %30, label %32, !prof !11

30:                                               ; preds = %27
  %31 = add nsw i32 %28, -1
  store i32 %31, ptr %0, align 4, !tbaa !4
  br label %lean_dec.exit

32:                                               ; preds = %27
  %.not.i13 = icmp eq i32 %28, 0
  br i1 %.not.i13, label %lean_dec.exit, label %33

33:                                               ; preds = %32
  tail call void @lean_dec_ref_cold(ptr noundef nonnull %0) #4
  br label %lean_dec.exit

lean_dec.exit:                                    ; preds = %33, %32, %30, %lean_dec.exit9
  ret ptr %6
}